; ModuleID = '29/98.c'
source_filename = "29/98.c"
target datalayout = "e-m:e-p270:32:32-p271:32:32-p272:64:64-i64:64-f80:128-n8:16:32:64-S128"
target triple = "x86_64-pc-linux-gnu"

@.str = private unnamed_addr constant [3 x i8] c"%d\00", align 1
@.str.1 = private unnamed_addr constant [7 x i8] c"%.3lf\0A\00", align 1

; Function Attrs: noinline nounwind uwtable
define dso_local i32 @main() #0 {
  %1 = alloca i32, align 4
  %2 = alloca i32, align 4
  %3 = alloca i32, align 4
  %4 = alloca i32, align 4
  %5 = alloca i32, align 4
  %6 = alloca i32, align 4
  %7 = alloca i32, align 4
  %8 = alloca i32, align 4
  %9 = alloca i32, align 4
  %10 = alloca i32, align 4
  %11 = alloca [100 x i32], align 16
  %12 = alloca double, align 8
  store i32 0, i32* %1, align 4
  store double 0.000000e+00, double* %12, align 8
  %13 = call i32 (i8*, ...) @__isoc99_scanf(i8* getelementptr inbounds ([3 x i8], [3 x i8]* @.str, i64 0, i64 0), i32* %2)
  store i32 0, i32* %9, align 4
  br label %14

14:                                               ; preds = %23, %0
  %15 = load i32, i32* %9, align 4
  %16 = load i32, i32* %2, align 4
  %17 = icmp slt i32 %15, %16
  br i1 %17, label %18, label %26

18:                                               ; preds = %14
  %19 = load i32, i32* %9, align 4
  %20 = sext i32 %19 to i64
  %21 = getelementptr inbounds [100 x i32], [100 x i32]* %11, i64 0, i64 %20
  %22 = call i32 (i8*, ...) @__isoc99_scanf(i8* getelementptr inbounds ([3 x i8], [3 x i8]* @.str, i64 0, i64 0), i32* %21)
  br label %23

23:                                               ; preds = %18
  %24 = load i32, i32* %9, align 4
  %25 = add nsw i32 %24, 1
  store i32 %25, i32* %9, align 4
  br label %14

26:                                               ; preds = %14
  store i32 0, i32* %9, align 4
  br label %27

27:                                               ; preds = %97, %26
  %28 = load i32, i32* %9, align 4
  %29 = load i32, i32* %2, align 4
  %30 = icmp slt i32 %28, %29
  br i1 %30, label %31, label %100

31:                                               ; preds = %27
  store i32 2, i32* %3, align 4
  store i32 3, i32* %4, align 4
  store i32 1, i32* %6, align 4
  store i32 2, i32* %7, align 4
  %32 = load i32, i32* %9, align 4
  %33 = sext i32 %32 to i64
  %34 = getelementptr inbounds [100 x i32], [100 x i32]* %11, i64 0, i64 %33
  %35 = load i32, i32* %34, align 4
  %36 = icmp eq i32 %35, 1
  br i1 %36, label %37, label %46

37:                                               ; preds = %31
  %38 = load i32, i32* %3, align 4
  %39 = sitofp i32 %38 to double
  %40 = fmul double %39, 1.000000e+00
  %41 = load i32, i32* %6, align 4
  %42 = sitofp i32 %41 to double
  %43 = fdiv double %40, %42
  store double %43, double* %12, align 8
  %44 = load double, double* %12, align 8
  %45 = call i32 (i8*, ...) @printf(i8* getelementptr inbounds ([7 x i8], [7 x i8]* @.str.1, i64 0, i64 0), double %44)
  br label %96

46:                                               ; preds = %31
  %47 = load i32, i32* %9, align 4
  %48 = sext i32 %47 to i64
  %49 = getelementptr inbounds [100 x i32], [100 x i32]* %11, i64 0, i64 %48
  %50 = load i32, i32* %49, align 4
  %51 = icmp eq i32 %50, 2
  br i1 %51, label %52, label %62

52:                                               ; preds = %46
  %53 = load i32, i32* %4, align 4
  %54 = sitofp i32 %53 to double
  %55 = fmul double %54, 1.000000e+00
  %56 = load i32, i32* %7, align 4
  %57 = sitofp i32 %56 to double
  %58 = fdiv double %55, %57
  store double %58, double* %12, align 8
  %59 = load double, double* %12, align 8
  %60 = fadd double %59, 2.000000e+00
  %61 = call i32 (i8*, ...) @printf(i8* getelementptr inbounds ([7 x i8], [7 x i8]* @.str.1, i64 0, i64 0), double %60)
  br label %95

62:                                               ; preds = %46
  store double 3.500000e+00, double* %12, align 8
  store i32 3, i32* %10, align 4
  br label %63

63:                                               ; preds = %89, %62
  %64 = load i32, i32* %10, align 4
  %65 = load i32, i32* %9, align 4
  %66 = sext i32 %65 to i64
  %67 = getelementptr inbounds [100 x i32], [100 x i32]* %11, i64 0, i64 %66
  %68 = load i32, i32* %67, align 4
  %69 = icmp sle i32 %64, %68
  br i1 %69, label %70, label %92

70:                                               ; preds = %63
  %71 = load i32, i32* %4, align 4
  %72 = load i32, i32* %3, align 4
  %73 = add nsw i32 %71, %72
  store i32 %73, i32* %5, align 4
  %74 = load i32, i32* %7, align 4
  %75 = load i32, i32* %6, align 4
  %76 = add nsw i32 %74, %75
  store i32 %76, i32* %8, align 4
  %77 = load i32, i32* %5, align 4
  %78 = sitofp i32 %77 to double
  %79 = fmul double %78, 1.000000e+00
  %80 = load i32, i32* %8, align 4
  %81 = sitofp i32 %80 to double
  %82 = fdiv double %79, %81
  %83 = load double, double* %12, align 8
  %84 = fadd double %83, %82
  store double %84, double* %12, align 8
  %85 = load i32, i32* %4, align 4
  store i32 %85, i32* %3, align 4
  %86 = load i32, i32* %5, align 4
  store i32 %86, i32* %4, align 4
  %87 = load i32, i32* %7, align 4
  store i32 %87, i32* %6, align 4
  %88 = load i32, i32* %8, align 4
  store i32 %88, i32* %7, align 4
  br label %89

89:                                               ; preds = %70
  %90 = load i32, i32* %10, align 4
  %91 = add nsw i32 %90, 1
  store i32 %91, i32* %10, align 4
  br label %63

92:                                               ; preds = %63
  %93 = load double, double* %12, align 8
  %94 = call i32 (i8*, ...) @printf(i8* getelementptr inbounds ([7 x i8], [7 x i8]* @.str.1, i64 0, i64 0), double %93)
  br label %95

95:                                               ; preds = %92, %52
  br label %96

96:                                               ; preds = %95, %37
  br label %97

97:                                               ; preds = %96
  %98 = load i32, i32* %9, align 4
  %99 = add nsw i32 %98, 1
  store i32 %99, i32* %9, align 4
  br label %27

100:                                              ; preds = %27
  ret i32 0
}

declare dso_local i32 @__isoc99_scanf(i8*, ...) #1

declare dso_local i32 @printf(i8*, ...) #1


!llvm.module.flags = !{!0}
!llvm.ident = !{!1}

!0 = !{i32 1, !"wchar_size", i32 4}
!1 = !{!"clang version 10.0.0-4ubuntu1 "}
